target datalayout = "e-m:e-p270:32:32-p271:32:32-p272:64:64-i64:64-i128:128-f80:128-n8:16:32:64-S128"
target triple = "x86_64-pc-linux-gnu"

%struct.ItemPointerData = type { %struct.BlockIdData, i16 }
%struct.BlockIdData = type { i16, i16 }
%struct.BTScanOpaqueData = type { i8, i32, ptr, i32, i8, i8, i8, ptr, ptr, ptr, ptr, i32, ptr, ptr, i32, %struct.BTScanPosData, %struct.BTScanPosData }
%struct.BTScanPosData = type { i32, i32, i32, i32, i64, i32, i32, i8, i8, i32, i32, i32, [1358 x %struct.BTScanPosItem] }
%struct.BTScanPosItem = type { %struct.ItemPointerData, i16, i16 }
%struct.IndexScanDescData = type { ptr, ptr, ptr, i32, i32, ptr, ptr, i8, i8, i8, i8, i8, ptr, ptr, ptr, ptr, ptr, %struct.ItemPointerData, i8, ptr, i8, ptr, ptr, i8, ptr }

; Function Attrs: inlinehint nounwind uwtable
define internal zeroext i1 @BufferIsValid(i32 noundef %0) #2 {
  %2 = alloca i32, align 4
  store i32 %0, ptr %2, align 4
  %3 = load i32, ptr %2, align 4
  %4 = icmp ne i32 %3, 0
  ret i1 %4
}

; Function Attrs: inlinehint nounwind uwtable
define internal zeroext i1 @BlockNumberIsValid(i32 noundef %0) #2 {
  %2 = alloca i32, align 4
  store i32 %0, ptr %2, align 4
  %3 = load i32, ptr %2, align 4
  %4 = icmp ne i32 %3, -1
  ret i1 %4
}

; Function Attrs: nounwind uwtable
define dso_local void @btrescan(ptr noundef %0, ptr noundef %1, i32 noundef %2, ptr noundef %3, i32 noundef %4) #0 {
  %6 = alloca ptr, align 8
  %7 = alloca ptr, align 8
  %8 = alloca i32, align 4
  %9 = alloca ptr, align 8
  %10 = alloca i32, align 4
  %11 = alloca ptr, align 8
  store ptr %0, ptr %6, align 8
  store ptr %1, ptr %7, align 8
  store i32 %2, ptr %8, align 4
  store ptr %3, ptr %9, align 8
  store i32 %4, ptr %10, align 4
  call void @llvm.lifetime.start.p0(i64 8, ptr %11) #8
  %12 = load ptr, ptr %6, align 8
  %13 = getelementptr inbounds nuw %struct.IndexScanDescData, ptr %12, i32 0, i32 12
  %14 = load ptr, ptr %13, align 8
  store ptr %14, ptr %11, align 8
  %15 = load ptr, ptr %11, align 8
  %16 = getelementptr inbounds nuw %struct.BTScanOpaqueData, ptr %15, i32 0, i32 15
  %17 = getelementptr inbounds nuw %struct.BTScanPosData, ptr %16, i32 0, i32 1
  %18 = load i32, ptr %17, align 4
  %19 = call zeroext i1 @BlockNumberIsValid(i32 noundef %18)
  br i1 %19, label %20, label %57

20:                                               ; preds = %5
  %21 = load ptr, ptr %11, align 8
  %22 = getelementptr inbounds nuw %struct.BTScanOpaqueData, ptr %21, i32 0, i32 11
  %23 = load i32, ptr %22, align 8
  %24 = icmp sgt i32 %23, 0
  br i1 %24, label %25, label %27

25:                                               ; preds = %20
  %26 = load ptr, ptr %6, align 8
  call void @_bt_killitems(ptr noundef %26)
  br label %27

27:                                               ; preds = %25, %20
  br label %28

28:                                               ; preds = %27
  %29 = load ptr, ptr %11, align 8
  %30 = getelementptr inbounds nuw %struct.BTScanOpaqueData, ptr %29, i32 0, i32 15
  %31 = getelementptr inbounds nuw %struct.BTScanPosData, ptr %30, i32 0, i32 0
  %32 = load i32, ptr %31, align 8
  %33 = call zeroext i1 @BufferIsValid(i32 noundef %32)
  br i1 %33, label %34, label %45

34:                                               ; preds = %28
  br label %35

35:                                               ; preds = %34
  %36 = load ptr, ptr %11, align 8
  %37 = getelementptr inbounds nuw %struct.BTScanOpaqueData, ptr %36, i32 0, i32 15
  %38 = getelementptr inbounds nuw %struct.BTScanPosData, ptr %37, i32 0, i32 0
  %39 = load i32, ptr %38, align 8
  call void @ReleaseBuffer(i32 noundef %39)
  %40 = load ptr, ptr %11, align 8
  %41 = getelementptr inbounds nuw %struct.BTScanOpaqueData, ptr %40, i32 0, i32 15
  %42 = getelementptr inbounds nuw %struct.BTScanPosData, ptr %41, i32 0, i32 0
  store i32 0, ptr %42, align 8
  br label %43

43:                                               ; preds = %35
  br label %44

44:                                               ; preds = %43
  br label %45

45:                                               ; preds = %44, %28
  br label %46

46:                                               ; preds = %45
  br label %47

47:                                               ; preds = %46
  br label %48

48:                                               ; preds = %47
  %49 = load ptr, ptr %11, align 8
  %50 = getelementptr inbounds nuw %struct.BTScanOpaqueData, ptr %49, i32 0, i32 15
  %51 = getelementptr inbounds nuw %struct.BTScanPosData, ptr %50, i32 0, i32 0
  store i32 0, ptr %51, align 8
  %52 = load ptr, ptr %11, align 8
  %53 = getelementptr inbounds nuw %struct.BTScanOpaqueData, ptr %52, i32 0, i32 15
  %54 = getelementptr inbounds nuw %struct.BTScanPosData, ptr %53, i32 0, i32 1
  store i32 -1, ptr %54, align 4
  br label %55

55:                                               ; preds = %48
  br label %56

56:                                               ; preds = %55
  br label %57

57:                                               ; preds = %56, %5
  %58 = load ptr, ptr %11, align 8
  %59 = getelementptr inbounds nuw %struct.BTScanOpaqueData, ptr %58, i32 0, i32 14
  store i32 -1, ptr %59, align 8
  %60 = load ptr, ptr %11, align 8
  %61 = getelementptr inbounds nuw %struct.BTScanOpaqueData, ptr %60, i32 0, i32 4
  store i8 0, ptr %61, align 4
  %62 = load ptr, ptr %11, align 8
  %63 = getelementptr inbounds nuw %struct.BTScanOpaqueData, ptr %62, i32 0, i32 5
  store i8 0, ptr %63, align 1
  %64 = load ptr, ptr %11, align 8
  %65 = getelementptr inbounds nuw %struct.BTScanOpaqueData, ptr %64, i32 0, i32 6
  store i8 0, ptr %65, align 2
  br label %66

66:                                               ; preds = %57
  %67 = load ptr, ptr %11, align 8
  %68 = getelementptr inbounds nuw %struct.BTScanOpaqueData, ptr %67, i32 0, i32 16
  %69 = getelementptr inbounds nuw %struct.BTScanPosData, ptr %68, i32 0, i32 0
  %70 = load i32, ptr %69, align 8
  %71 = call zeroext i1 @BufferIsValid(i32 noundef %70)
  br i1 %71, label %72, label %83

72:                                               ; preds = %66
  br label %73

73:                                               ; preds = %72
  %74 = load ptr, ptr %11, align 8
  %75 = getelementptr inbounds nuw %struct.BTScanOpaqueData, ptr %74, i32 0, i32 16
  %76 = getelementptr inbounds nuw %struct.BTScanPosData, ptr %75, i32 0, i32 0
  %77 = load i32, ptr %76, align 8
  call void @ReleaseBuffer(i32 noundef %77)
  %78 = load ptr, ptr %11, align 8
  %79 = getelementptr inbounds nuw %struct.BTScanOpaqueData, ptr %78, i32 0, i32 16
  %80 = getelementptr inbounds nuw %struct.BTScanPosData, ptr %79, i32 0, i32 0
  store i32 0, ptr %80, align 8
  br label %81

81:                                               ; preds = %73
  br label %82

82:                                               ; preds = %81
  br label %83

83:                                               ; preds = %82, %66
  br label %84

84:                                               ; preds = %83
  br label %85

85:                                               ; preds = %84
  br label %86

86:                                               ; preds = %85
  %87 = load ptr, ptr %11, align 8
  %88 = getelementptr inbounds nuw %struct.BTScanOpaqueData, ptr %87, i32 0, i32 16
  %89 = getelementptr inbounds nuw %struct.BTScanPosData, ptr %88, i32 0, i32 0
  store i32 0, ptr %89, align 8
  %90 = load ptr, ptr %11, align 8
  %91 = getelementptr inbounds nuw %struct.BTScanOpaqueData, ptr %90, i32 0, i32 16
  %92 = getelementptr inbounds nuw %struct.BTScanPosData, ptr %91, i32 0, i32 1
  store i32 -1, ptr %92, align 4
  br label %93

93:                                               ; preds = %86
  br label %94

94:                                               ; preds = %93
  %95 = load ptr, ptr %6, align 8
  %96 = getelementptr inbounds nuw %struct.IndexScanDescData, ptr %95, i32 0, i32 7
  %97 = load i8, ptr %96, align 8, !range !4, !noundef !5
  %98 = trunc i8 %97 to i1
  br i1 %98, label %99, label %114

99:                                               ; preds = %94
  %100 = load ptr, ptr %11, align 8
  %101 = getelementptr inbounds nuw %struct.BTScanOpaqueData, ptr %100, i32 0, i32 12
  %102 = load ptr, ptr %101, align 8
  %103 = icmp eq ptr %102, null
  br i1 %103, label %104, label %114

104:                                              ; preds = %99
  %105 = call ptr @palloc(i64 noundef 16384)
  %106 = load ptr, ptr %11, align 8
  %107 = getelementptr inbounds nuw %struct.BTScanOpaqueData, ptr %106, i32 0, i32 12
  store ptr %105, ptr %107, align 8
  %108 = load ptr, ptr %11, align 8
  %109 = getelementptr inbounds nuw %struct.BTScanOpaqueData, ptr %108, i32 0, i32 12
  %110 = load ptr, ptr %109, align 8
  %111 = getelementptr inbounds i8, ptr %110, i64 8192
  %112 = load ptr, ptr %11, align 8
  %113 = getelementptr inbounds nuw %struct.BTScanOpaqueData, ptr %112, i32 0, i32 13
  store ptr %111, ptr %113, align 8
  br label %114

114:                                              ; preds = %104, %99, %94
  %115 = load ptr, ptr %7, align 8
  %116 = icmp ne ptr %115, null
  br i1 %116, label %117, label %132

117:                                              ; preds = %114
  %118 = load ptr, ptr %6, align 8
  %119 = getelementptr inbounds nuw %struct.IndexScanDescData, ptr %118, i32 0, i32 3
  %120 = load i32, ptr %119, align 8
  %121 = icmp sgt i32 %120, 0
  br i1 %121, label %122, label %132

122:                                              ; preds = %117
  %123 = load ptr, ptr %6, align 8
  %124 = getelementptr inbounds nuw %struct.IndexScanDescData, ptr %123, i32 0, i32 5
  %125 = load ptr, ptr %124, align 8
  %126 = load ptr, ptr %7, align 8
  %127 = load ptr, ptr %6, align 8
  %128 = getelementptr inbounds nuw %struct.IndexScanDescData, ptr %127, i32 0, i32 3
  %129 = load i32, ptr %128, align 8
  %130 = sext i32 %129 to i64
  %131 = mul i64 %130, 72
  call void @llvm.memcpy.p0.p0.i64(ptr align 8 %125, ptr align 8 %126, i64 %131, i1 false)
  br label %132

132:                                              ; preds = %122, %117, %114
  %133 = load ptr, ptr %11, align 8
  %134 = getelementptr inbounds nuw %struct.BTScanOpaqueData, ptr %133, i32 0, i32 1
  store i32 0, ptr %134, align 4
  %135 = load ptr, ptr %11, align 8
  %136 = getelementptr inbounds nuw %struct.BTScanOpaqueData, ptr %135, i32 0, i32 3
  store i32 0, ptr %136, align 8
  call void @llvm.lifetime.end.p0(i64 8, ptr %11) #8
  ret void
}