; Function Attrs: nounwind uwtable
define dso_local void @btrescan(ptr noundef %0, ptr noundef readonly captures(address_is_null) %1, i32 %2, ptr readnone captures(none) %3, i32 %4) #0 {
  %6 = getelementptr inbounds nuw i8, ptr %0, i64 56
  %7 = load ptr, ptr %6, align 8
  %8 = getelementptr inbounds nuw i8, ptr %7, i64 88
  %9 = getelementptr inbounds nuw i8, ptr %7, i64 92
  %10 = load i32, ptr %9, align 4
  %.not31 = icmp eq i32 %10, -1
  br i1 %.not31, label %20, label %11

11:                                               ; preds = %5
  %12 = getelementptr inbounds nuw i8, ptr %7, i64 56
  %13 = load i32, ptr %12, align 8
  %14 = icmp sgt i32 %13, 0
  br i1 %14, label %15, label %16

15:                                               ; preds = %11
  tail call void @_bt_killitems(ptr noundef nonnull %0) #8
  br label %16

16:                                               ; preds = %11, %15
  %17 = load i32, ptr %8, align 8
  %.not32 = icmp eq i32 %17, 0
  br i1 %.not32, label %19, label %18

18:                                               ; preds = %16
  tail call void @ReleaseBuffer(i32 noundef %17) #8
  br label %19

19:                                               ; preds = %16, %18
  store i32 0, ptr %8, align 8
  store i32 -1, ptr %9, align 4
  br label %20

20:                                               ; preds = %19, %5
  %21 = getelementptr inbounds nuw i8, ptr %7, i64 80
  store i32 -1, ptr %21, align 8
  %22 = getelementptr inbounds nuw i8, ptr %7, i64 20
  store i8 0, ptr %22, align 4
  %23 = getelementptr inbounds nuw i8, ptr %7, i64 21
  store i8 0, ptr %23, align 1
  %24 = getelementptr inbounds nuw i8, ptr %7, i64 22
  store i8 0, ptr %24, align 2
  %25 = getelementptr inbounds nuw i8, ptr %7, i64 13720
  %26 = load i32, ptr %25, align 8
  %.not33 = icmp eq i32 %26, 0
  br i1 %.not33, label %28, label %27

27:                                               ; preds = %20
  tail call void @ReleaseBuffer(i32 noundef %26) #8
  br label %28

28:                                               ; preds = %20, %27
  store i32 0, ptr %25, align 8
  %29 = getelementptr inbounds nuw i8, ptr %7, i64 13724
  store i32 -1, ptr %29, align 4
  %30 = getelementptr inbounds nuw i8, ptr %0, i64 48
  %31 = load i8, ptr %30, align 8, !range !4, !noundef !5
  %32 = trunc nuw i8 %31 to i1
  br i1 %32, label %33, label %41

33:                                               ; preds = %28
  %34 = getelementptr inbounds nuw i8, ptr %7, i64 64
  %35 = load ptr, ptr %34, align 8
  %36 = icmp eq ptr %35, null
  br i1 %36, label %37, label %41

37:                                               ; preds = %33
  %38 = tail call ptr @palloc(i64 noundef 16384) #8
  store ptr %38, ptr %34, align 8
  %39 = getelementptr inbounds nuw i8, ptr %38, i64 8192
  %40 = getelementptr inbounds nuw i8, ptr %7, i64 72
  store ptr %39, ptr %40, align 8
  br label %41

41:                                               ; preds = %37, %33, %28
  %.not = icmp eq ptr %1, null
  br i1 %.not, label %51, label %42

42:                                               ; preds = %41
  %43 = getelementptr inbounds nuw i8, ptr %0, i64 24
  %44 = load i32, ptr %43, align 8
  %45 = icmp sgt i32 %44, 0
  br i1 %45, label %46, label %51

46:                                               ; preds = %42
  %47 = getelementptr inbounds nuw i8, ptr %0, i64 32
  %48 = load ptr, ptr %47, align 8
  %49 = zext nneg i32 %44 to i64
  %50 = mul nuw nsw i64 %49, 72
  tail call void @llvm.memcpy.p0.p0.i64(ptr align 8 %48, ptr nonnull align 8 %1, i64 %50, i1 false)
  br label %51

51:                                               ; preds = %46, %42, %41
  %52 = getelementptr inbounds nuw i8, ptr %7, i64 4
  store i32 0, ptr %52, align 4
  %53 = getelementptr inbounds nuw i8, ptr %7, i64 16
  store i32 0, ptr %53, align 8
  ret void
}